target datalayout = "e-m:e-p270:32:32-p271:32:32-p272:64:64-i64:64-i128:128-f80:128-n8:16:32:64-S128"
target triple = "x86_64-pc-linux-gnu"

; Function Attrs: alwaysinline nounwind willreturn memory(none) uwtable
define internal i32 @av_clip_uintp2_c(i32 noundef %0, i32 noundef %1) #3 {
  %3 = alloca i32, align 4
  %4 = alloca i32, align 4
  %5 = alloca i32, align 4
  store i32 %0, ptr %4, align 4, !tbaa !19
  store i32 %1, ptr %5, align 4, !tbaa !19
  %6 = load i32, ptr %4, align 4, !tbaa !19
  %7 = load i32, ptr %5, align 4, !tbaa !19
  %8 = shl i32 1, %7
  %9 = sub i32 %8, 1
  %10 = xor i32 %9, -1
  %11 = and i32 %6, %10
  %12 = icmp ne i32 %11, 0
  br i1 %12, label %13, label %21

13:                                               ; preds = %2
  %14 = load i32, ptr %4, align 4, !tbaa !19
  %15 = xor i32 %14, -1
  %16 = ashr i32 %15, 31
  %17 = load i32, ptr %5, align 4, !tbaa !19
  %18 = shl i32 1, %17
  %19 = sub i32 %18, 1
  %20 = and i32 %16, %19
  store i32 %20, ptr %3, align 4
  br label %23

21:                                               ; preds = %2
  %22 = load i32, ptr %4, align 4, !tbaa !19
  store i32 %22, ptr %3, align 4
  br label %23

23:                                               ; preds = %21, %13
  %24 = load i32, ptr %3, align 4
  ret i32 %24
}

; Function Attrs: alwaysinline nounwind uwtable
define internal void @do_8tap_1d_c(ptr noundef %0, i64 noundef %1, ptr noundef %2, i64 noundef %3, i32 noundef %4, i32 noundef %5, i64 noundef %6, ptr noundef %7, i32 noundef %8) #6 {
  %10 = alloca ptr, align 8
  %11 = alloca i64, align 8
  %12 = alloca ptr, align 8
  %13 = alloca i64, align 8
  %14 = alloca i32, align 4
  %15 = alloca i32, align 4
  %16 = alloca i64, align 8
  %17 = alloca ptr, align 8
  %18 = alloca i32, align 4
  %19 = alloca ptr, align 8
  %20 = alloca ptr, align 8
  %21 = alloca i32, align 4
  store ptr %0, ptr %10, align 8, !tbaa !10
  store i64 %1, ptr %11, align 8, !tbaa !12
  store ptr %2, ptr %12, align 8, !tbaa !10
  store i64 %3, ptr %13, align 8, !tbaa !12
  store i32 %4, ptr %14, align 4, !tbaa !19
  store i32 %5, ptr %15, align 4, !tbaa !19
  store i64 %6, ptr %16, align 8, !tbaa !12
  store ptr %7, ptr %17, align 8, !tbaa !14
  store i32 %8, ptr %18, align 4, !tbaa !19
  call void @llvm.lifetime.start.p0(i64 8, ptr %19) #9
  %22 = load ptr, ptr %10, align 8, !tbaa !10
  store ptr %22, ptr %19, align 8, !tbaa !14
  call void @llvm.lifetime.start.p0(i64 8, ptr %20) #9
  %23 = load ptr, ptr %12, align 8, !tbaa !10
  store ptr %23, ptr %20, align 8, !tbaa !14
  %24 = load i64, ptr %11, align 8, !tbaa !12
  %25 = udiv i64 %24, 2
  store i64 %25, ptr %11, align 8, !tbaa !12
  %26 = load i64, ptr %13, align 8, !tbaa !12
  %27 = udiv i64 %26, 2
  store i64 %27, ptr %13, align 8, !tbaa !12
  br label %28

28:                                               ; preds = %312, %9
  call void @llvm.lifetime.start.p0(i64 4, ptr %21) #9
  store i32 0, ptr %21, align 4, !tbaa !19
  br label %29

29:                                               ; preds = %302, %28
  %30 = load i32, ptr %21, align 4, !tbaa !19
  %31 = load i32, ptr %14, align 4, !tbaa !19
  %32 = icmp slt i32 %30, %31
  br i1 %32, label %33, label %305

33:                                               ; preds = %29
  %34 = load i32, ptr %18, align 4, !tbaa !19
  %35 = icmp ne i32 %34, 0
  br i1 %35, label %36, label %173

36:                                               ; preds = %33
  %37 = load ptr, ptr %19, align 8, !tbaa !14
  %38 = load i32, ptr %21, align 4, !tbaa !19
  %39 = sext i32 %38 to i64
  %40 = getelementptr inbounds i16, ptr %37, i64 %39
  %41 = load i16, ptr %40, align 2, !tbaa !17
  %42 = zext i16 %41 to i32
  %43 = load ptr, ptr %17, align 8, !tbaa !14
  %44 = getelementptr inbounds i16, ptr %43, i64 0
  %45 = load i16, ptr %44, align 2, !tbaa !17
  %46 = sext i16 %45 to i32
  %47 = load ptr, ptr %20, align 8, !tbaa !14
  %48 = load i32, ptr %21, align 4, !tbaa !19
  %49 = sext i32 %48 to i64
  %50 = load i64, ptr %16, align 8, !tbaa !12
  %51 = mul nsw i64 -3, %50
  %52 = add nsw i64 %49, %51
  %53 = getelementptr inbounds i16, ptr %47, i64 %52
  %54 = load i16, ptr %53, align 2, !tbaa !17
  %55 = zext i16 %54 to i32
  %56 = mul nsw i32 %46, %55
  %57 = load ptr, ptr %17, align 8, !tbaa !14
  %58 = getelementptr inbounds i16, ptr %57, i64 1
  %59 = load i16, ptr %58, align 2, !tbaa !17
  %60 = sext i16 %59 to i32
  %61 = load ptr, ptr %20, align 8, !tbaa !14
  %62 = load i32, ptr %21, align 4, !tbaa !19
  %63 = sext i32 %62 to i64
  %64 = load i64, ptr %16, align 8, !tbaa !12
  %65 = mul nsw i64 -2, %64
  %66 = add nsw i64 %63, %65
  %67 = getelementptr inbounds i16, ptr %61, i64 %66
  %68 = load i16, ptr %67, align 2, !tbaa !17
  %69 = zext i16 %68 to i32
  %70 = mul nsw i32 %60, %69
  %71 = add nsw i32 %56, %70
  %72 = load ptr, ptr %17, align 8, !tbaa !14
  %73 = getelementptr inbounds i16, ptr %72, i64 2
  %74 = load i16, ptr %73, align 2, !tbaa !17
  %75 = sext i16 %74 to i32
  %76 = load ptr, ptr %20, align 8, !tbaa !14
  %77 = load i32, ptr %21, align 4, !tbaa !19
  %78 = sext i32 %77 to i64
  %79 = load i64, ptr %16, align 8, !tbaa !12
  %80 = mul nsw i64 -1, %79
  %81 = add nsw i64 %78, %80
  %82 = getelementptr inbounds i16, ptr %76, i64 %81
  %83 = load i16, ptr %82, align 2, !tbaa !17
  %84 = zext i16 %83 to i32
  %85 = mul nsw i32 %75, %84
  %86 = add nsw i32 %71, %85
  %87 = load ptr, ptr %17, align 8, !tbaa !14
  %88 = getelementptr inbounds i16, ptr %87, i64 3
  %89 = load i16, ptr %88, align 2, !tbaa !17
  %90 = sext i16 %89 to i32
  %91 = load ptr, ptr %20, align 8, !tbaa !14
  %92 = load i32, ptr %21, align 4, !tbaa !19
  %93 = sext i32 %92 to i64
  %94 = load i64, ptr %16, align 8, !tbaa !12
  %95 = mul nsw i64 0, %94
  %96 = add nsw i64 %93, %95
  %97 = getelementptr inbounds i16, ptr %91, i64 %96
  %98 = load i16, ptr %97, align 2, !tbaa !17
  %99 = zext i16 %98 to i32
  %100 = mul nsw i32 %90, %99
  %101 = add nsw i32 %86, %100
  %102 = load ptr, ptr %17, align 8, !tbaa !14
  %103 = getelementptr inbounds i16, ptr %102, i64 4
  %104 = load i16, ptr %103, align 2, !tbaa !17
  %105 = sext i16 %104 to i32
  %106 = load ptr, ptr %20, align 8, !tbaa !14
  %107 = load i32, ptr %21, align 4, !tbaa !19
  %108 = sext i32 %107 to i64
  %109 = load i64, ptr %16, align 8, !tbaa !12
  %110 = mul nsw i64 1, %109
  %111 = add nsw i64 %108, %110
  %112 = getelementptr inbounds i16, ptr %106, i64 %111
  %113 = load i16, ptr %112, align 2, !tbaa !17
  %114 = zext i16 %113 to i32
  %115 = mul nsw i32 %105, %114
  %116 = add nsw i32 %101, %115
  %117 = load ptr, ptr %17, align 8, !tbaa !14
  %118 = getelementptr inbounds i16, ptr %117, i64 5
  %119 = load i16, ptr %118, align 2, !tbaa !17
  %120 = sext i16 %119 to i32
  %121 = load ptr, ptr %20, align 8, !tbaa !14
  %122 = load i32, ptr %21, align 4, !tbaa !19
  %123 = sext i32 %122 to i64
  %124 = load i64, ptr %16, align 8, !tbaa !12
  %125 = mul nsw i64 2, %124
  %126 = add nsw i64 %123, %125
  %127 = getelementptr inbounds i16, ptr %121, i64 %126
  %128 = load i16, ptr %127, align 2, !tbaa !17
  %129 = zext i16 %128 to i32
  %130 = mul nsw i32 %120, %129
  %131 = add nsw i32 %116, %130
  %132 = load ptr, ptr %17, align 8, !tbaa !14
  %133 = getelementptr inbounds i16, ptr %132, i64 6
  %134 = load i16, ptr %133, align 2, !tbaa !17
  %135 = sext i16 %134 to i32
  %136 = load ptr, ptr %20, align 8, !tbaa !14
  %137 = load i32, ptr %21, align 4, !tbaa !19
  %138 = sext i32 %137 to i64
  %139 = load i64, ptr %16, align 8, !tbaa !12
  %140 = mul nsw i64 3, %139
  %141 = add nsw i64 %138, %140
  %142 = getelementptr inbounds i16, ptr %136, i64 %141
  %143 = load i16, ptr %142, align 2, !tbaa !17
  %144 = zext i16 %143 to i32
  %145 = mul nsw i32 %135, %144
  %146 = add nsw i32 %131, %145
  %147 = load ptr, ptr %17, align 8, !tbaa !14
  %148 = getelementptr inbounds i16, ptr %147, i64 7
  %149 = load i16, ptr %148, align 2, !tbaa !17
  %150 = sext i16 %149 to i32
  %151 = load ptr, ptr %20, align 8, !tbaa !14
  %152 = load i32, ptr %21, align 4, !tbaa !19
  %153 = sext i32 %152 to i64
  %154 = load i64, ptr %16, align 8, !tbaa !12
  %155 = mul nsw i64 4, %154
  %156 = add nsw i64 %153, %155
  %157 = getelementptr inbounds i16, ptr %151, i64 %156
  %158 = load i16, ptr %157, align 2, !tbaa !17
  %159 = zext i16 %158 to i32
  %160 = mul nsw i32 %150, %159
  %161 = add nsw i32 %146, %160
  %162 = add nsw i32 %161, 64
  %163 = ashr i32 %162, 7
  %164 = call i32 @av_clip_uintp2_c(i32 noundef %163, i32 noundef 10) #10
  %165 = add i32 %42, %164
  %166 = add i32 %165, 1
  %167 = lshr i32 %166, 1
  %168 = trunc i32 %167 to i16
  %169 = load ptr, ptr %19, align 8, !tbaa !14
  %170 = load i32, ptr %21, align 4, !tbaa !19
  %171 = sext i32 %170 to i64
  %172 = getelementptr inbounds i16, ptr %169, i64 %171
  store i16 %168, ptr %172, align 2, !tbaa !17
  br label %301

173:                                              ; preds = %33
  %174 = load ptr, ptr %17, align 8, !tbaa !14
  %175 = getelementptr inbounds i16, ptr %174, i64 0
  %176 = load i16, ptr %175, align 2, !tbaa !17
  %177 = sext i16 %176 to i32
  %178 = load ptr, ptr %20, align 8, !tbaa !14
  %179 = load i32, ptr %21, align 4, !tbaa !19
  %180 = sext i32 %179 to i64
  %181 = load i64, ptr %16, align 8, !tbaa !12
  %182 = mul nsw i64 -3, %181
  %183 = add nsw i64 %180, %182
  %184 = getelementptr inbounds i16, ptr %178, i64 %183
  %185 = load i16, ptr %184, align 2, !tbaa !17
  %186 = zext i16 %185 to i32
  %187 = mul nsw i32 %177, %186
  %188 = load ptr, ptr %17, align 8, !tbaa !14
  %189 = getelementptr inbounds i16, ptr %188, i64 1
  %190 = load i16, ptr %189, align 2, !tbaa !17
  %191 = sext i16 %190 to i32
  %192 = load ptr, ptr %20, align 8, !tbaa !14
  %193 = load i32, ptr %21, align 4, !tbaa !19
  %194 = sext i32 %193 to i64
  %195 = load i64, ptr %16, align 8, !tbaa !12
  %196 = mul nsw i64 -2, %195
  %197 = add nsw i64 %194, %196
  %198 = getelementptr inbounds i16, ptr %192, i64 %197
  %199 = load i16, ptr %198, align 2, !tbaa !17
  %200 = zext i16 %199 to i32
  %201 = mul nsw i32 %191, %200
  %202 = add nsw i32 %187, %201
  %203 = load ptr, ptr %17, align 8, !tbaa !14
  %204 = getelementptr inbounds i16, ptr %203, i64 2
  %205 = load i16, ptr %204, align 2, !tbaa !17
  %206 = sext i16 %205 to i32
  %207 = load ptr, ptr %20, align 8, !tbaa !14
  %208 = load i32, ptr %21, align 4, !tbaa !19
  %209 = sext i32 %208 to i64
  %210 = load i64, ptr %16, align 8, !tbaa !12
  %211 = mul nsw i64 -1, %210
  %212 = add nsw i64 %209, %211
  %213 = getelementptr inbounds i16, ptr %207, i64 %212
  %214 = load i16, ptr %213, align 2, !tbaa !17
  %215 = zext i16 %214 to i32
  %216 = mul nsw i32 %206, %215
  %217 = add nsw i32 %202, %216
  %218 = load ptr, ptr %17, align 8, !tbaa !14
  %219 = getelementptr inbounds i16, ptr %218, i64 3
  %220 = load i16, ptr %219, align 2, !tbaa !17
  %221 = sext i16 %220 to i32
  %222 = load ptr, ptr %20, align 8, !tbaa !14
  %223 = load i32, ptr %21, align 4, !tbaa !19
  %224 = sext i32 %223 to i64
  %225 = load i64, ptr %16, align 8, !tbaa !12
  %226 = mul nsw i64 0, %225
  %227 = add nsw i64 %224, %226
  %228 = getelementptr inbounds i16, ptr %222, i64 %227
  %229 = load i16, ptr %228, align 2, !tbaa !17
  %230 = zext i16 %229 to i32
  %231 = mul nsw i32 %221, %230
  %232 = add nsw i32 %217, %231
  %233 = load ptr, ptr %17, align 8, !tbaa !14
  %234 = getelementptr inbounds i16, ptr %233, i64 4
  %235 = load i16, ptr %234, align 2, !tbaa !17
  %236 = sext i16 %235 to i32
  %237 = load ptr, ptr %20, align 8, !tbaa !14
  %238 = load i32, ptr %21, align 4, !tbaa !19
  %239 = sext i32 %238 to i64
  %240 = load i64, ptr %16, align 8, !tbaa !12
  %241 = mul nsw i64 1, %240
  %242 = add nsw i64 %239, %241
  %243 = getelementptr inbounds i16, ptr %237, i64 %242
  %244 = load i16, ptr %243, align 2, !tbaa !17
  %245 = zext i16 %244 to i32
  %246 = mul nsw i32 %236, %245
  %247 = add nsw i32 %232, %246
  %248 = load ptr, ptr %17, align 8, !tbaa !14
  %249 = getelementptr inbounds i16, ptr %248, i64 5
  %250 = load i16, ptr %249, align 2, !tbaa !17
  %251 = sext i16 %250 to i32
  %252 = load ptr, ptr %20, align 8, !tbaa !14
  %253 = load i32, ptr %21, align 4, !tbaa !19
  %254 = sext i32 %253 to i64
  %255 = load i64, ptr %16, align 8, !tbaa !12
  %256 = mul nsw i64 2, %255
  %257 = add nsw i64 %254, %256
  %258 = getelementptr inbounds i16, ptr %252, i64 %257
  %259 = load i16, ptr %258, align 2, !tbaa !17
  %260 = zext i16 %259 to i32
  %261 = mul nsw i32 %251, %260
  %262 = add nsw i32 %247, %261
  %263 = load ptr, ptr %17, align 8, !tbaa !14
  %264 = getelementptr inbounds i16, ptr %263, i64 6
  %265 = load i16, ptr %264, align 2, !tbaa !17
  %266 = sext i16 %265 to i32
  %267 = load ptr, ptr %20, align 8, !tbaa !14
  %268 = load i32, ptr %21, align 4, !tbaa !19
  %269 = sext i32 %268 to i64
  %270 = load i64, ptr %16, align 8, !tbaa !12
  %271 = mul nsw i64 3, %270
  %272 = add nsw i64 %269, %271
  %273 = getelementptr inbounds i16, ptr %267, i64 %272
  %274 = load i16, ptr %273, align 2, !tbaa !17
  %275 = zext i16 %274 to i32
  %276 = mul nsw i32 %266, %275
  %277 = add nsw i32 %262, %276
  %278 = load ptr, ptr %17, align 8, !tbaa !14
  %279 = getelementptr inbounds i16, ptr %278, i64 7
  %280 = load i16, ptr %279, align 2, !tbaa !17
  %281 = sext i16 %280 to i32
  %282 = load ptr, ptr %20, align 8, !tbaa !14
  %283 = load i32, ptr %21, align 4, !tbaa !19
  %284 = sext i32 %283 to i64
  %285 = load i64, ptr %16, align 8, !tbaa !12
  %286 = mul nsw i64 4, %285
  %287 = add nsw i64 %284, %286
  %288 = getelementptr inbounds i16, ptr %282, i64 %287
  %289 = load i16, ptr %288, align 2, !tbaa !17
  %290 = zext i16 %289 to i32
  %291 = mul nsw i32 %281, %290
  %292 = add nsw i32 %277, %291
  %293 = add nsw i32 %292, 64
  %294 = ashr i32 %293, 7
  %295 = call i32 @av_clip_uintp2_c(i32 noundef %294, i32 noundef 10) #10
  %296 = trunc i32 %295 to i16
  %297 = load ptr, ptr %19, align 8, !tbaa !14
  %298 = load i32, ptr %21, align 4, !tbaa !19
  %299 = sext i32 %298 to i64
  %300 = getelementptr inbounds i16, ptr %297, i64 %299
  store i16 %296, ptr %300, align 2, !tbaa !17
  br label %301

301:                                              ; preds = %173, %36
  br label %302

302:                                              ; preds = %301
  %303 = load i32, ptr %21, align 4, !tbaa !19
  %304 = add nsw i32 %303, 1
  store i32 %304, ptr %21, align 4, !tbaa !19
  br label %29, !llvm.loop !104

305:                                              ; preds = %29
  %306 = load i64, ptr %11, align 8, !tbaa !12
  %307 = load ptr, ptr %19, align 8, !tbaa !14
  %308 = getelementptr inbounds i16, ptr %307, i64 %306
  store ptr %308, ptr %19, align 8, !tbaa !14
  %309 = load i64, ptr %13, align 8, !tbaa !12
  %310 = load ptr, ptr %20, align 8, !tbaa !14
  %311 = getelementptr inbounds i16, ptr %310, i64 %309
  store ptr %311, ptr %20, align 8, !tbaa !14
  call void @llvm.lifetime.end.p0(i64 4, ptr %21) #9
  br label %312

312:                                              ; preds = %305
  %313 = load i32, ptr %15, align 4, !tbaa !19
  %314 = add nsw i32 %313, -1
  store i32 %314, ptr %15, align 4, !tbaa !19
  %315 = icmp ne i32 %314, 0
  br i1 %315, label %28, label %316, !llvm.loop !105

316:                                              ; preds = %312
  call void @llvm.lifetime.end.p0(i64 8, ptr %20) #9
  call void @llvm.lifetime.end.p0(i64 8, ptr %19) #9
  ret void
}

; Function Attrs: noinline nounwind uwtable
define internal void @put_8tap_1d_h_c(ptr noundef %0, i64 noundef %1, ptr noundef %2, i64 noundef %3, i32 noundef %4, i32 noundef %5, ptr noundef %6) #7 {
  %8 = alloca ptr, align 8
  %9 = alloca i64, align 8
  %10 = alloca ptr, align 8
  %11 = alloca i64, align 8
  %12 = alloca i32, align 4
  %13 = alloca i32, align 4
  %14 = alloca ptr, align 8
  store ptr %0, ptr %8, align 8, !tbaa !10
  store i64 %1, ptr %9, align 8, !tbaa !12
  store ptr %2, ptr %10, align 8, !tbaa !10
  store i64 %3, ptr %11, align 8, !tbaa !12
  store i32 %4, ptr %12, align 4, !tbaa !19
  store i32 %5, ptr %13, align 4, !tbaa !19
  store ptr %6, ptr %14, align 8, !tbaa !14
  %15 = load ptr, ptr %8, align 8, !tbaa !10
  %16 = load i64, ptr %9, align 8, !tbaa !12
  %17 = load ptr, ptr %10, align 8, !tbaa !10
  %18 = load i64, ptr %11, align 8, !tbaa !12
  %19 = load i32, ptr %12, align 4, !tbaa !19
  %20 = load i32, ptr %13, align 4, !tbaa !19
  %21 = load ptr, ptr %14, align 8, !tbaa !14
  call void @do_8tap_1d_c(ptr noundef %15, i64 noundef %16, ptr noundef %17, i64 noundef %18, i32 noundef %19, i32 noundef %20, i64 noundef 1, ptr noundef %21, i32 noundef 0)
  ret void
}