; Function Attrs: nofree noinline norecurse nosync nounwind memory(argmem: readwrite) uwtable
define internal fastcc void @put_8tap_1d_h_c(ptr noundef writeonly captures(none) %0, i64 noundef %1, ptr noundef readonly captures(none) %2, i64 noundef %3, i32 noundef range(i32 4, 65) %4, i32 noundef %5, ptr noundef readonly captures(none) %6) unnamed_addr #8 {
  %8 = lshr i64 %1, 1
  %9 = lshr i64 %3, 1
  %10 = getelementptr inbounds nuw i8, ptr %6, i64 2
  %11 = getelementptr inbounds nuw i8, ptr %6, i64 4
  %12 = getelementptr inbounds nuw i8, ptr %6, i64 6
  %13 = getelementptr inbounds nuw i8, ptr %6, i64 8
  %14 = getelementptr inbounds nuw i8, ptr %6, i64 10
  %15 = getelementptr inbounds nuw i8, ptr %6, i64 12
  %16 = getelementptr inbounds nuw i8, ptr %6, i64 14
  %wide.trip.count = zext nneg i32 %4 to i64
  br label %17

17:                                               ; preds = %83, %7
  %.084.i = phi i32 [ %5, %7 ], [ %86, %83 ]
  %.083.i = phi ptr [ %0, %7 ], [ %84, %83 ]
  %.082.i = phi ptr [ %2, %7 ], [ %85, %83 ]
  %18 = getelementptr i8, ptr %.082.i, i64 -6
  %invariant.gep = getelementptr i8, ptr %.082.i, i64 -4
  %invariant.gep6 = getelementptr i8, ptr %.082.i, i64 -2
  %19 = getelementptr inbounds nuw i8, ptr %.082.i, i64 2
  %20 = getelementptr inbounds nuw i8, ptr %.082.i, i64 4
  %21 = getelementptr inbounds nuw i8, ptr %.082.i, i64 6
  %22 = getelementptr inbounds nuw i8, ptr %.082.i, i64 8
  br label %23

23:                                               ; preds = %17, %23
  %indvars.iv = phi i64 [ 0, %17 ], [ %indvars.iv.next, %23 ]
  %24 = load i16, ptr %6, align 2, !tbaa !9
  %25 = sext i16 %24 to i32
  %26 = getelementptr i16, ptr %18, i64 %indvars.iv
  %27 = load i16, ptr %26, align 2, !tbaa !9
  %28 = zext i16 %27 to i32
  %29 = mul nsw i32 %28, %25
  %30 = load i16, ptr %10, align 2, !tbaa !9
  %31 = sext i16 %30 to i32
  %gep = getelementptr i16, ptr %invariant.gep, i64 %indvars.iv
  %32 = load i16, ptr %gep, align 2, !tbaa !9
  %33 = zext i16 %32 to i32
  %34 = mul nsw i32 %33, %31
  %35 = load i16, ptr %11, align 2, !tbaa !9
  %36 = sext i16 %35 to i32
  %gep7 = getelementptr i16, ptr %invariant.gep6, i64 %indvars.iv
  %37 = load i16, ptr %gep7, align 2, !tbaa !9
  %38 = zext i16 %37 to i32
  %39 = mul nsw i32 %38, %36
  %40 = load i16, ptr %12, align 2, !tbaa !9
  %41 = sext i16 %40 to i32
  %42 = getelementptr inbounds nuw i16, ptr %.082.i, i64 %indvars.iv
  %43 = load i16, ptr %42, align 2, !tbaa !9
  %44 = zext i16 %43 to i32
  %45 = mul nsw i32 %44, %41
  %46 = load i16, ptr %13, align 2, !tbaa !9
  %47 = sext i16 %46 to i32
  %48 = getelementptr inbounds nuw i16, ptr %19, i64 %indvars.iv
  %49 = load i16, ptr %48, align 2, !tbaa !9
  %50 = zext i16 %49 to i32
  %51 = mul nsw i32 %50, %47
  %52 = load i16, ptr %14, align 2, !tbaa !9
  %53 = sext i16 %52 to i32
  %54 = getelementptr inbounds nuw i16, ptr %20, i64 %indvars.iv
  %55 = load i16, ptr %54, align 2, !tbaa !9
  %56 = zext i16 %55 to i32
  %57 = mul nsw i32 %56, %53
  %58 = load i16, ptr %15, align 2, !tbaa !9
  %59 = sext i16 %58 to i32
  %60 = getelementptr inbounds nuw i16, ptr %21, i64 %indvars.iv
  %61 = load i16, ptr %60, align 2, !tbaa !9
  %62 = zext i16 %61 to i32
  %63 = mul nsw i32 %62, %59
  %64 = load i16, ptr %16, align 2, !tbaa !9
  %65 = sext i16 %64 to i32
  %66 = getelementptr inbounds nuw i16, ptr %22, i64 %indvars.iv
  %67 = load i16, ptr %66, align 2, !tbaa !9
  %68 = zext i16 %67 to i32
  %69 = mul nsw i32 %68, %65
  %70 = add nsw i32 %29, 64
  %71 = add i32 %70, %34
  %72 = add i32 %71, %39
  %73 = add i32 %72, %45
  %74 = add i32 %73, %51
  %75 = add i32 %74, %57
  %76 = add i32 %75, %63
  %77 = add i32 %76, %69
  %78 = ashr i32 %77, 7
  %79 = tail call i32 @llvm.smax.i32(i32 %78, i32 0)
  %80 = tail call i32 @llvm.umin.i32(i32 %79, i32 1023)
  %81 = trunc nuw nsw i32 %80 to i16
  %82 = getelementptr inbounds nuw i16, ptr %.083.i, i64 %indvars.iv
  store i16 %81, ptr %82, align 2, !tbaa !9
  %indvars.iv.next = add nuw nsw i64 %indvars.iv, 1
  %exitcond.not = icmp eq i64 %indvars.iv.next, %wide.trip.count
  br i1 %exitcond.not, label %83, label %23, !llvm.loop !139

83:                                               ; preds = %23
  %84 = getelementptr inbounds nuw i16, ptr %.083.i, i64 %8
  %85 = getelementptr inbounds nuw i16, ptr %.082.i, i64 %9
  %86 = add nsw i32 %.084.i, -1
  %.not.i = icmp eq i32 %86, 0
  br i1 %.not.i, label %do_8tap_1d_c.exit, label %17, !llvm.loop !140

do_8tap_1d_c.exit:                                ; preds = %83
  ret void
}